; ModuleID = '46/392.c'
source_filename = "46/392.c"
target datalayout = "e-m:e-p270:32:32-p271:32:32-p272:64:64-i64:64-f80:128-n8:16:32:64-S128"
target triple = "x86_64-pc-linux-gnu"

@.str = private unnamed_addr constant [5 x i8] c"%d%d\00", align 1
@.str.1 = private unnamed_addr constant [3 x i8] c"%d\00", align 1
@u = common dso_local global [1000 x [1000 x i32]] zeroinitializer, align 16
@.str.2 = private unnamed_addr constant [4 x i8] c"%d\0A\00", align 1

; Function Attrs: noinline nounwind uwtable
define dso_local i32 @main() #0 {
  %1 = alloca i32, align 4
  %2 = alloca i32, align 4
  %3 = alloca i32, align 4
  %4 = alloca i32, align 4
  %5 = alloca i32, align 4
  %6 = alloca i32, align 4
  %7 = alloca i32, align 4
  %8 = alloca i32, align 4
  store i32 0, i32* %1, align 4
  %9 = call i32 (i8*, ...) @__isoc99_scanf(i8* getelementptr inbounds ([5 x i8], [5 x i8]* @.str, i64 0, i64 0), i32* %2, i32* %3)
  store i32 0, i32* %4, align 4
  br label %10

10:                                               ; preds = %31, %0
  %11 = load i32, i32* %4, align 4
  %12 = load i32, i32* %2, align 4
  %13 = icmp slt i32 %11, %12
  br i1 %13, label %14, label %34

14:                                               ; preds = %10
  store i32 0, i32* %5, align 4
  br label %15

15:                                               ; preds = %27, %14
  %16 = load i32, i32* %5, align 4
  %17 = load i32, i32* %3, align 4
  %18 = icmp slt i32 %16, %17
  br i1 %18, label %19, label %30

19:                                               ; preds = %15
  %20 = load i32, i32* %4, align 4
  %21 = sext i32 %20 to i64
  %22 = getelementptr inbounds [1000 x [1000 x i32]], [1000 x [1000 x i32]]* @u, i64 0, i64 %21
  %23 = load i32, i32* %5, align 4
  %24 = sext i32 %23 to i64
  %25 = getelementptr inbounds [1000 x i32], [1000 x i32]* %22, i64 0, i64 %24
  %26 = call i32 (i8*, ...) @__isoc99_scanf(i8* getelementptr inbounds ([3 x i8], [3 x i8]* @.str.1, i64 0, i64 0), i32* %25)
  br label %27

27:                                               ; preds = %19
  %28 = load i32, i32* %5, align 4
  %29 = add nsw i32 %28, 1
  store i32 %29, i32* %5, align 4
  br label %15

30:                                               ; preds = %15
  br label %31

31:                                               ; preds = %30
  %32 = load i32, i32* %4, align 4
  %33 = add nsw i32 %32, 1
  store i32 %33, i32* %4, align 4
  br label %10

34:                                               ; preds = %10
  %35 = load i32, i32* %2, align 4
  %36 = load i32, i32* %3, align 4
  %37 = icmp sgt i32 %35, %36
  br i1 %37, label %38, label %40

38:                                               ; preds = %34
  %39 = load i32, i32* %3, align 4
  store i32 %39, i32* %8, align 4
  br label %42

40:                                               ; preds = %34
  %41 = load i32, i32* %2, align 4
  store i32 %41, i32* %8, align 4
  br label %42

42:                                               ; preds = %40, %38
  store i32 0, i32* %7, align 4
  br label %43

43:                                               ; preds = %161, %42
  %44 = load i32, i32* %7, align 4
  %45 = load i32, i32* %8, align 4
  %46 = icmp slt i32 %44, %45
  br i1 %46, label %47, label %164

47:                                               ; preds = %43
  %48 = load i32, i32* %7, align 4
  store i32 %48, i32* %5, align 4
  br label %49

49:                                               ; preds = %64, %47
  %50 = load i32, i32* %5, align 4
  %51 = load i32, i32* %3, align 4
  %52 = load i32, i32* %7, align 4
  %53 = sub nsw i32 %51, %52
  %54 = icmp slt i32 %50, %53
  br i1 %54, label %55, label %67

55:                                               ; preds = %49
  %56 = load i32, i32* %7, align 4
  %57 = sext i32 %56 to i64
  %58 = getelementptr inbounds [1000 x [1000 x i32]], [1000 x [1000 x i32]]* @u, i64 0, i64 %57
  %59 = load i32, i32* %5, align 4
  %60 = sext i32 %59 to i64
  %61 = getelementptr inbounds [1000 x i32], [1000 x i32]* %58, i64 0, i64 %60
  %62 = load i32, i32* %61, align 4
  %63 = call i32 (i8*, ...) @printf(i8* getelementptr inbounds ([4 x i8], [4 x i8]* @.str.2, i64 0, i64 0), i32 %62)
  br label %64

64:                                               ; preds = %55
  %65 = load i32, i32* %5, align 4
  %66 = add nsw i32 %65, 1
  store i32 %66, i32* %5, align 4
  br label %49

67:                                               ; preds = %49
  %68 = load i32, i32* %7, align 4
  %69 = add nsw i32 %68, 1
  %70 = load i32, i32* %2, align 4
  %71 = load i32, i32* %7, align 4
  %72 = sub nsw i32 %70, %71
  %73 = icmp sge i32 %69, %72
  br i1 %73, label %74, label %75

74:                                               ; preds = %67
  br label %164

75:                                               ; preds = %67
  %76 = load i32, i32* %7, align 4
  %77 = add nsw i32 %76, 1
  store i32 %77, i32* %4, align 4
  br label %78

78:                                               ; preds = %96, %75
  %79 = load i32, i32* %4, align 4
  %80 = load i32, i32* %2, align 4
  %81 = load i32, i32* %7, align 4
  %82 = sub nsw i32 %80, %81
  %83 = icmp slt i32 %79, %82
  br i1 %83, label %84, label %99

84:                                               ; preds = %78
  %85 = load i32, i32* %4, align 4
  %86 = sext i32 %85 to i64
  %87 = getelementptr inbounds [1000 x [1000 x i32]], [1000 x [1000 x i32]]* @u, i64 0, i64 %86
  %88 = load i32, i32* %3, align 4
  %89 = load i32, i32* %7, align 4
  %90 = sub nsw i32 %88, %89
  %91 = sub nsw i32 %90, 1
  %92 = sext i32 %91 to i64
  %93 = getelementptr inbounds [1000 x i32], [1000 x i32]* %87, i64 0, i64 %92
  %94 = load i32, i32* %93, align 4
  %95 = call i32 (i8*, ...) @printf(i8* getelementptr inbounds ([4 x i8], [4 x i8]* @.str.2, i64 0, i64 0), i32 %94)
  br label %96

96:                                               ; preds = %84
  %97 = load i32, i32* %4, align 4
  %98 = add nsw i32 %97, 1
  store i32 %98, i32* %4, align 4
  br label %78

99:                                               ; preds = %78
  %100 = load i32, i32* %3, align 4
  %101 = sub nsw i32 %100, 2
  %102 = load i32, i32* %7, align 4
  %103 = sub nsw i32 %101, %102
  %104 = load i32, i32* %7, align 4
  %105 = icmp slt i32 %103, %104
  br i1 %105, label %106, label %107

106:                                              ; preds = %99
  br label %164

107:                                              ; preds = %99
  %108 = load i32, i32* %3, align 4
  %109 = sub nsw i32 %108, 2
  %110 = load i32, i32* %7, align 4
  %111 = sub nsw i32 %109, %110
  store i32 %111, i32* %5, align 4
  br label %112

112:                                              ; preds = %128, %107
  %113 = load i32, i32* %5, align 4
  %114 = load i32, i32* %7, align 4
  %115 = icmp sge i32 %113, %114
  br i1 %115, label %116, label %131

116:                                              ; preds = %112
  %117 = load i32, i32* %2, align 4
  %118 = load i32, i32* %7, align 4
  %119 = sub nsw i32 %117, %118
  %120 = sub nsw i32 %119, 1
  %121 = sext i32 %120 to i64
  %122 = getelementptr inbounds [1000 x [1000 x i32]], [1000 x [1000 x i32]]* @u, i64 0, i64 %121
  %123 = load i32, i32* %5, align 4
  %124 = sext i32 %123 to i64
  %125 = getelementptr inbounds [1000 x i32], [1000 x i32]* %122, i64 0, i64 %124
  %126 = load i32, i32* %125, align 4
  %127 = call i32 (i8*, ...) @printf(i8* getelementptr inbounds ([4 x i8], [4 x i8]* @.str.2, i64 0, i64 0), i32 %126)
  br label %128

128:                                              ; preds = %116
  %129 = load i32, i32* %5, align 4
  %130 = add nsw i32 %129, -1
  store i32 %130, i32* %5, align 4
  br label %112

131:                                              ; preds = %112
  %132 = load i32, i32* %2, align 4
  %133 = sub nsw i32 %132, 2
  %134 = load i32, i32* %7, align 4
  %135 = sub nsw i32 %133, %134
  %136 = load i32, i32* %7, align 4
  %137 = icmp sle i32 %135, %136
  br i1 %137, label %138, label %139

138:                                              ; preds = %131
  br label %164

139:                                              ; preds = %131
  %140 = load i32, i32* %2, align 4
  %141 = sub nsw i32 %140, 2
  %142 = load i32, i32* %7, align 4
  %143 = sub nsw i32 %141, %142
  store i32 %143, i32* %4, align 4
  br label %144

144:                                              ; preds = %157, %139
  %145 = load i32, i32* %4, align 4
  %146 = load i32, i32* %7, align 4
  %147 = icmp sgt i32 %145, %146
  br i1 %147, label %148, label %160

148:                                              ; preds = %144
  %149 = load i32, i32* %4, align 4
  %150 = sext i32 %149 to i64
  %151 = getelementptr inbounds [1000 x [1000 x i32]], [1000 x [1000 x i32]]* @u, i64 0, i64 %150
  %152 = load i32, i32* %7, align 4
  %153 = sext i32 %152 to i64
  %154 = getelementptr inbounds [1000 x i32], [1000 x i32]* %151, i64 0, i64 %153
  %155 = load i32, i32* %154, align 4
  %156 = call i32 (i8*, ...) @printf(i8* getelementptr inbounds ([4 x i8], [4 x i8]* @.str.2, i64 0, i64 0), i32 %155)
  br label %157

157:                                              ; preds = %148
  %158 = load i32, i32* %4, align 4
  %159 = add nsw i32 %158, -1
  store i32 %159, i32* %4, align 4
  br label %144

160:                                              ; preds = %144
  br label %161

161:                                              ; preds = %160
  %162 = load i32, i32* %7, align 4
  %163 = add nsw i32 %162, 1
  store i32 %163, i32* %7, align 4
  br label %43

164:                                              ; preds = %138, %106, %74, %43
  ret i32 0
}

declare dso_local i32 @__isoc99_scanf(i8*, ...) #1

declare dso_local i32 @printf(i8*, ...) #1


!llvm.module.flags = !{!0}
!llvm.ident = !{!1}

!0 = !{i32 1, !"wchar_size", i32 4}
!1 = !{!"clang version 10.0.0-4ubuntu1 "}
